target datalayout = "e-m:e-p270:32:32-p271:32:32-p272:64:64-i64:64-i128:128-f80:128-n8:16:32:64-S128"
target triple = "x86_64-pc-linux-gnu"

%"class.sat::probing" = type { ptr, i32, %"class.sat::literal_set", %class.svector.2, i32, i8, i32, i8, i8, i64, i32, %class.vector.4, %class.svector.5, %"class.sat::big" }
%"class.sat::literal_set" = type { %class.tracked_uint_set }
%class.tracked_uint_set = type { %class.svector, %class.svector.0 }
%class.svector = type { %class.vector }
%class.vector = type { ptr }
%class.svector.0 = type { %class.vector.1 }
%class.vector.1 = type { ptr }
%class.svector.2 = type { %class.vector.3 }
%class.vector.3 = type { ptr }
%class.vector.4 = type { ptr }
%class.svector.5 = type { %class.vector.6 }
%class.vector.6 = type { ptr }
%"class.sat::big" = type { ptr, i32, %class.vector.7, %class.svector.8, %class.svector.10, %class.svector.10, %class.svector.2, %class.svector.2, i8, i8, %class.vector.7 }
%class.svector.8 = type { %class.vector.9 }
%class.vector.9 = type { ptr }
%class.svector.10 = type { %class.vector.11 }
%class.vector.11 = type { ptr }
%class.vector.7 = type { ptr }
%"class.sat::literal" = type { i32 }

; Function Attrs: mustprogress nounwind uwtable
define linkonce_odr hidden noundef nonnull align 4 dereferenceable(4) ptr @_ZNK6vectorIiLb0EjEixEj(ptr noundef nonnull align 8 dereferenceable(8) %0, i32 noundef %1) #5 comdat align 2 {
  %3 = alloca ptr, align 8
  %4 = alloca i32, align 4
  store ptr %0, ptr %3, align 8, !tbaa !264
  store i32 %1, ptr %4, align 4, !tbaa !69
  %5 = load ptr, ptr %3, align 8
  %6 = getelementptr inbounds nuw %class.vector.11, ptr %5, i32 0, i32 0
  %7 = load ptr, ptr %6, align 8, !tbaa !270
  %8 = load i32, ptr %4, align 4, !tbaa !69
  %9 = zext i32 %8 to i64
  %10 = getelementptr inbounds nuw i32, ptr %7, i64 %9
  ret ptr %10
}

; Function Attrs: mustprogress nounwind uwtable
define linkonce_odr hidden noundef i32 @_ZNK3sat7literal5indexEv(ptr noundef nonnull align 4 dereferenceable(4) %0) #5 comdat align 2 {
  %2 = alloca ptr, align 8
  store ptr %0, ptr %2, align 8, !tbaa !66
  %3 = load ptr, ptr %2, align 8
  %4 = getelementptr inbounds nuw %"class.sat::literal", ptr %3, i32 0, i32 0
  %5 = load i32, ptr %4, align 4, !tbaa !67
  ret i32 %5
}

; Function Attrs: mustprogress nounwind uwtable
define linkonce_odr hidden i32 @_ZN3satcoENS_7literalE(i32 %0) #5 comdat {
  %2 = alloca %"class.sat::literal", align 4
  %3 = alloca %"class.sat::literal", align 4
  %4 = getelementptr inbounds nuw %"class.sat::literal", ptr %3, i32 0, i32 0
  store i32 %0, ptr %4, align 4
  %5 = getelementptr inbounds nuw %"class.sat::literal", ptr %3, i32 0, i32 0
  %6 = load i32, ptr %5, align 4, !tbaa !67
  %7 = xor i32 %6, 1
  %8 = getelementptr inbounds nuw %"class.sat::literal", ptr %3, i32 0, i32 0
  store i32 %7, ptr %8, align 4, !tbaa !67
  call void @llvm.memcpy.p0.p0.i64(ptr align 4 %2, ptr align 4 %3, i64 4, i1 false), !tbaa.struct !198
  %9 = getelementptr inbounds nuw %"class.sat::literal", ptr %2, i32 0, i32 0
  %10 = load i32, ptr %9, align 4
  ret i32 %10
}

; Function Attrs: mustprogress uwtable
define linkonce_odr hidden noundef zeroext i1 @_ZNK3sat3big7reachesENS_7literalES1_(ptr noundef nonnull align 8 dereferenceable(80) %0, i32 %1, i32 %2) #4 comdat align 2 {
  %4 = alloca %"class.sat::literal", align 4
  %5 = alloca %"class.sat::literal", align 4
  %6 = alloca ptr, align 8
  %7 = getelementptr inbounds nuw %"class.sat::literal", ptr %4, i32 0, i32 0
  store i32 %1, ptr %7, align 4
  %8 = getelementptr inbounds nuw %"class.sat::literal", ptr %5, i32 0, i32 0
  store i32 %2, ptr %8, align 4
  store ptr %0, ptr %6, align 8, !tbaa !58
  %9 = load ptr, ptr %6, align 8
  %10 = getelementptr inbounds nuw %"class.sat::big", ptr %9, i32 0, i32 4
  %11 = call noundef i32 @_ZNK3sat7literal5indexEv(ptr noundef nonnull align 4 dereferenceable(4) %4)
  %12 = call noundef nonnull align 4 dereferenceable(4) ptr @_ZNK6vectorIiLb0EjEixEj(ptr noundef nonnull align 8 dereferenceable(8) %10, i32 noundef %11)
  %13 = load i32, ptr %12, align 4, !tbaa !69
  %14 = getelementptr inbounds nuw %"class.sat::big", ptr %9, i32 0, i32 4
  %15 = call noundef i32 @_ZNK3sat7literal5indexEv(ptr noundef nonnull align 4 dereferenceable(4) %5)
  %16 = call noundef nonnull align 4 dereferenceable(4) ptr @_ZNK6vectorIiLb0EjEixEj(ptr noundef nonnull align 8 dereferenceable(8) %14, i32 noundef %15)
  %17 = load i32, ptr %16, align 4, !tbaa !69
  %18 = icmp slt i32 %13, %17
  br i1 %18, label %19, label %29

19:                                               ; preds = %3
  %20 = getelementptr inbounds nuw %"class.sat::big", ptr %9, i32 0, i32 5
  %21 = call noundef i32 @_ZNK3sat7literal5indexEv(ptr noundef nonnull align 4 dereferenceable(4) %5)
  %22 = call noundef nonnull align 4 dereferenceable(4) ptr @_ZNK6vectorIiLb0EjEixEj(ptr noundef nonnull align 8 dereferenceable(8) %20, i32 noundef %21)
  %23 = load i32, ptr %22, align 4, !tbaa !69
  %24 = getelementptr inbounds nuw %"class.sat::big", ptr %9, i32 0, i32 5
  %25 = call noundef i32 @_ZNK3sat7literal5indexEv(ptr noundef nonnull align 4 dereferenceable(4) %4)
  %26 = call noundef nonnull align 4 dereferenceable(4) ptr @_ZNK6vectorIiLb0EjEixEj(ptr noundef nonnull align 8 dereferenceable(8) %24, i32 noundef %25)
  %27 = load i32, ptr %26, align 4, !tbaa !69
  %28 = icmp slt i32 %23, %27
  br label %29

29:                                               ; preds = %19, %3
  %30 = phi i1 [ false, %3 ], [ %28, %19 ]
  ret i1 %30
}

; Function Attrs: mustprogress uwtable
define linkonce_odr hidden noundef zeroext i1 @_ZNK3sat3big9connectedENS_7literalES1_(ptr noundef nonnull align 8 dereferenceable(80) %0, i32 %1, i32 %2) #4 comdat align 2 {
  %4 = alloca %"class.sat::literal", align 4
  %5 = alloca %"class.sat::literal", align 4
  %6 = alloca ptr, align 8
  %7 = alloca %"class.sat::literal", align 4
  %8 = alloca %"class.sat::literal", align 4
  %9 = alloca %"class.sat::literal", align 4
  %10 = alloca %"class.sat::literal", align 4
  %11 = alloca %"class.sat::literal", align 4
  %12 = alloca %"class.sat::literal", align 4
  %13 = getelementptr inbounds nuw %"class.sat::literal", ptr %4, i32 0, i32 0
  store i32 %1, ptr %13, align 4
  %14 = getelementptr inbounds nuw %"class.sat::literal", ptr %5, i32 0, i32 0
  store i32 %2, ptr %14, align 4
  store ptr %0, ptr %6, align 8, !tbaa !58
  %15 = load ptr, ptr %6, align 8
  call void @llvm.memcpy.p0.p0.i64(ptr align 4 %7, ptr align 4 %4, i64 4, i1 false), !tbaa.struct !198
  call void @llvm.memcpy.p0.p0.i64(ptr align 4 %8, ptr align 4 %5, i64 4, i1 false), !tbaa.struct !198
  %16 = getelementptr inbounds nuw %"class.sat::literal", ptr %7, i32 0, i32 0
  %17 = load i32, ptr %16, align 4
  %18 = getelementptr inbounds nuw %"class.sat::literal", ptr %8, i32 0, i32 0
  %19 = load i32, ptr %18, align 4
  %20 = call noundef zeroext i1 @_ZNK3sat3big7reachesENS_7literalES1_(ptr noundef nonnull align 8 dereferenceable(80) %15, i32 %17, i32 %19)
  br i1 %20, label %35, label %21

21:                                               ; preds = %3
  call void @llvm.memcpy.p0.p0.i64(ptr align 4 %10, ptr align 4 %5, i64 4, i1 false), !tbaa.struct !198
  %22 = getelementptr inbounds nuw %"class.sat::literal", ptr %10, i32 0, i32 0
  %23 = load i32, ptr %22, align 4
  %24 = call i32 @_ZN3satcoENS_7literalE(i32 %23)
  %25 = getelementptr inbounds nuw %"class.sat::literal", ptr %9, i32 0, i32 0
  store i32 %24, ptr %25, align 4
  call void @llvm.memcpy.p0.p0.i64(ptr align 4 %12, ptr align 4 %4, i64 4, i1 false), !tbaa.struct !198
  %26 = getelementptr inbounds nuw %"class.sat::literal", ptr %12, i32 0, i32 0
  %27 = load i32, ptr %26, align 4
  %28 = call i32 @_ZN3satcoENS_7literalE(i32 %27)
  %29 = getelementptr inbounds nuw %"class.sat::literal", ptr %11, i32 0, i32 0
  store i32 %28, ptr %29, align 4
  %30 = getelementptr inbounds nuw %"class.sat::literal", ptr %9, i32 0, i32 0
  %31 = load i32, ptr %30, align 4
  %32 = getelementptr inbounds nuw %"class.sat::literal", ptr %11, i32 0, i32 0
  %33 = load i32, ptr %32, align 4
  %34 = call noundef zeroext i1 @_ZNK3sat3big7reachesENS_7literalES1_(ptr noundef nonnull align 8 dereferenceable(80) %15, i32 %31, i32 %33)
  br label %35

35:                                               ; preds = %21, %3
  %36 = phi i1 [ true, %3 ], [ %34, %21 ]
  ret i1 %36
}

; Function Attrs: mustprogress uwtable
define hidden noundef zeroext i1 @_ZN3sat7probing7impliesENS_7literalES1_(ptr noundef nonnull align 8 dereferenceable(168) %0, i32 %1, i32 %2) #4 align 2 {
  %4 = alloca %"class.sat::literal", align 4
  %5 = alloca %"class.sat::literal", align 4
  %6 = alloca ptr, align 8
  %7 = alloca %"class.sat::literal", align 4
  %8 = alloca %"class.sat::literal", align 4
  %9 = getelementptr inbounds nuw %"class.sat::literal", ptr %4, i32 0, i32 0
  store i32 %1, ptr %9, align 4
  %10 = getelementptr inbounds nuw %"class.sat::literal", ptr %5, i32 0, i32 0
  store i32 %2, ptr %10, align 4
  store ptr %0, ptr %6, align 8, !tbaa !3
  %11 = load ptr, ptr %6, align 8
  %12 = getelementptr inbounds nuw %"class.sat::probing", ptr %11, i32 0, i32 13
  call void @llvm.memcpy.p0.p0.i64(ptr align 4 %7, ptr align 4 %4, i64 4, i1 false), !tbaa.struct !198
  call void @llvm.memcpy.p0.p0.i64(ptr align 4 %8, ptr align 4 %5, i64 4, i1 false), !tbaa.struct !198
  %13 = getelementptr inbounds nuw %"class.sat::literal", ptr %7, i32 0, i32 0
  %14 = load i32, ptr %13, align 4
  %15 = getelementptr inbounds nuw %"class.sat::literal", ptr %8, i32 0, i32 0
  %16 = load i32, ptr %15, align 4
  %17 = call noundef zeroext i1 @_ZNK3sat3big9connectedENS_7literalES1_(ptr noundef nonnull align 8 dereferenceable(80) %12, i32 %14, i32 %16)
  ret i1 %17
}