; Function Attrs: mustprogress nofree norecurse nosync nounwind willreturn memory(read, inaccessiblemem: none) uwtable
define hidden noundef zeroext i1 @_ZN3sat7probing7impliesENS_7literalES1_(ptr noundef nonnull readonly align 8 captures(none) dereferenceable(168) %0, i32 %1, i32 %2) local_unnamed_addr #9 align 2 {
  %4 = getelementptr inbounds nuw i8, ptr %0, i64 120
  %5 = load ptr, ptr %4, align 8, !tbaa !56
  %6 = zext i32 %1 to i64
  %7 = getelementptr inbounds nuw i32, ptr %5, i64 %6
  %8 = load i32, ptr %7, align 4, !tbaa !52
  %9 = zext i32 %2 to i64
  %10 = getelementptr inbounds nuw i32, ptr %5, i64 %9
  %11 = load i32, ptr %10, align 4, !tbaa !52
  %12 = icmp slt i32 %8, %11
  br i1 %12, label %_ZNK3sat3big7reachesENS_7literalES1_.exit.i, label %_ZNK3sat3big7reachesENS_7literalES1_.exit.thread.i

_ZNK3sat3big7reachesENS_7literalES1_.exit.i:      ; preds = %3
  %13 = getelementptr inbounds nuw i8, ptr %0, i64 128
  %14 = load ptr, ptr %13, align 8, !tbaa !56
  %15 = getelementptr inbounds nuw i32, ptr %14, i64 %9
  %16 = load i32, ptr %15, align 4, !tbaa !52
  %17 = getelementptr inbounds nuw i32, ptr %14, i64 %6
  %18 = load i32, ptr %17, align 4, !tbaa !52
  %19 = icmp slt i32 %16, %18
  br i1 %19, label %_ZNK3sat3big9connectedENS_7literalES1_.exit, label %_ZNK3sat3big7reachesENS_7literalES1_.exit.thread.i

_ZNK3sat3big7reachesENS_7literalES1_.exit.thread.i: ; preds = %_ZNK3sat3big7reachesENS_7literalES1_.exit.i, %3
  %20 = xor i32 %2, 1
  %21 = xor i32 %1, 1
  %22 = zext i32 %20 to i64
  %23 = getelementptr inbounds nuw i32, ptr %5, i64 %22
  %24 = load i32, ptr %23, align 4, !tbaa !52
  %25 = zext i32 %21 to i64
  %26 = getelementptr inbounds nuw i32, ptr %5, i64 %25
  %27 = load i32, ptr %26, align 4, !tbaa !52
  %28 = icmp slt i32 %24, %27
  br i1 %28, label %29, label %_ZNK3sat3big9connectedENS_7literalES1_.exit

29:                                               ; preds = %_ZNK3sat3big7reachesENS_7literalES1_.exit.thread.i
  %30 = getelementptr inbounds nuw i8, ptr %0, i64 128
  %31 = load ptr, ptr %30, align 8, !tbaa !56
  %32 = getelementptr inbounds nuw i32, ptr %31, i64 %25
  %33 = load i32, ptr %32, align 4, !tbaa !52
  %34 = getelementptr inbounds nuw i32, ptr %31, i64 %22
  %35 = load i32, ptr %34, align 4, !tbaa !52
  %36 = icmp slt i32 %33, %35
  br label %_ZNK3sat3big9connectedENS_7literalES1_.exit

_ZNK3sat3big9connectedENS_7literalES1_.exit:      ; preds = %_ZNK3sat3big7reachesENS_7literalES1_.exit.i, %_ZNK3sat3big7reachesENS_7literalES1_.exit.thread.i, %29
  %37 = phi i1 [ true, %_ZNK3sat3big7reachesENS_7literalES1_.exit.i ], [ false, %_ZNK3sat3big7reachesENS_7literalES1_.exit.thread.i ], [ %36, %29 ]
  ret i1 %37
}